; Function Attrs: nounwind uwtable
define range(i32 -1, 1) i32 @hwloc_distances_get(ptr noundef %0, ptr noundef captures(none) %1, ptr noundef captures(none) %2, i64 noundef %3, i64 noundef %4) local_unnamed_addr #1 {
  %.not = icmp eq i64 %4, 0
  br i1 %.not, label %6, label %10

6:                                                ; preds = %5
  %7 = getelementptr inbounds nuw i8, ptr %0, i64 200
  %8 = load i64, ptr %7, align 8, !tbaa !63
  %9 = and i64 %8, 2
  %.not8 = icmp eq i64 %9, 0
  br i1 %.not8, label %10, label %12

10:                                               ; preds = %6, %5
  %11 = tail call ptr @__errno_location() #30
  store i32 22, ptr %11, align 4, !tbaa !3
  br label %14

12:                                               ; preds = %6
  %13 = tail call fastcc i32 @hwloc__distances_get(ptr noundef nonnull %0, ptr noundef null, i32 noundef -1, ptr noundef %1, ptr noundef %2, i64 noundef %3)
  br label %14

14:                                               ; preds = %12, %10
  %.0 = phi i32 [ -1, %10 ], [ %13, %12 ]
  ret i32 %.0
}